target datalayout = "e-m:e-p270:32:32-p271:32:32-p272:64:64-i64:64-i128:128-f80:128-n8:16:32:64-S128"
target triple = "x86_64-pc-linux-gnu"

%"class.tbb::detail::r1::concurrent_monitor" = type { %"class.tbb::detail::r1::concurrent_monitor_base.base", [4 x i8] }
%"class.tbb::detail::r1::concurrent_monitor_base.base" = type <{ %"class.tbb::detail::r1::concurrent_monitor_mutex", %"class.tbb::detail::r1::circular_doubly_linked_list_with_sentinel", %"struct.std::atomic.2" }>
%"class.tbb::detail::r1::concurrent_monitor_mutex" = type { %"struct.std::atomic", %"struct.std::atomic" }
%"struct.std::atomic" = type { %"struct.std::__atomic_base" }
%"struct.std::__atomic_base" = type { i32 }
%"class.tbb::detail::r1::circular_doubly_linked_list_with_sentinel" = type { %"struct.std::atomic.0", %"struct.tbb::detail::r1::circular_doubly_linked_list_with_sentinel::base_node" }
%"struct.std::atomic.0" = type { %"struct.std::__atomic_base.1" }
%"struct.std::__atomic_base.1" = type { i64 }
%"struct.tbb::detail::r1::circular_doubly_linked_list_with_sentinel::base_node" = type { ptr, ptr }
%"struct.std::atomic.2" = type { %"struct.std::__atomic_base.3" }
%"struct.std::__atomic_base.3" = type { i32 }
%"class.tbb::detail::r1::concurrent_monitor_base" = type <{ %"class.tbb::detail::r1::concurrent_monitor_mutex", %"class.tbb::detail::r1::circular_doubly_linked_list_with_sentinel", %"struct.std::atomic.2", [4 x i8] }>

; Function Attrs: inlinehint mustprogress nounwind sspstrong uwtable
define internal void @_ZN3tbb6detail2d0L20atomic_fence_seq_cstEv() #9 {
  %1 = alloca i8, align 1
  call void @llvm.lifetime.start.p0(i64 1, ptr %1) #13
  store i8 0, ptr %1, align 1, !tbaa !95
  call void asm sideeffect "lock; notb $0", "=*m,*m,~{memory},~{dirflag},~{fpsr},~{flags}"(ptr elementtype(i8) %1, ptr elementtype(i8) %1) #13, !srcloc !96
  call void @llvm.lifetime.end.p0(i64 1, ptr %1) #13
  ret void
}

; Function Attrs: mustprogress nounwind sspstrong uwtable
define linkonce_odr void @_ZN3tbb6detail2r124concurrent_monitor_mutex7destroyEv(ptr noundef nonnull align 4 dereferenceable(8) %0) #5 comdat align 2 {
  %2 = alloca ptr, align 8
  store ptr %0, ptr %2, align 8, !tbaa !40
  ret void
}

; Function Attrs: mustprogress sspstrong uwtable
define linkonce_odr void @_ZN3tbb6detail2r123concurrent_monitor_baseImE9abort_allEv(ptr noundef nonnull align 8 dereferenceable(36) %0) #0 comdat align 2 {
  %2 = alloca ptr, align 8
  store ptr %0, ptr %2, align 8, !tbaa !17
  %3 = load ptr, ptr %2, align 8
  call void @_ZN3tbb6detail2d0L20atomic_fence_seq_cstEv()
  call void @_ZN3tbb6detail2r123concurrent_monitor_baseImE17abort_all_relaxedEv(ptr noundef nonnull align 8 dereferenceable(36) %3)
  ret void
}

; Function Attrs: mustprogress sspstrong uwtable
define linkonce_odr void @_ZN3tbb6detail2r123concurrent_monitor_baseImE7destroyEv(ptr noundef nonnull align 8 dereferenceable(36) %0) #0 comdat align 2 {
  %2 = alloca ptr, align 8
  store ptr %0, ptr %2, align 8, !tbaa !17
  %3 = load ptr, ptr %2, align 8
  call void @_ZN3tbb6detail2r123concurrent_monitor_baseImE9abort_allEv(ptr noundef nonnull align 8 dereferenceable(36) %3)
  %4 = getelementptr inbounds nuw %"class.tbb::detail::r1::concurrent_monitor_base", ptr %3, i32 0, i32 0
  call void @_ZN3tbb6detail2r124concurrent_monitor_mutex7destroyEv(ptr noundef nonnull align 4 dereferenceable(8) %4)
  ret void
}

; Function Attrs: mustprogress nounwind sspstrong uwtable
define linkonce_odr void @_ZN3tbb6detail2r118concurrent_monitorD2Ev(ptr noundef nonnull align 8 dereferenceable(36) %0) unnamed_addr #5 comdat align 2 personality ptr @__gxx_personality_v0 {
  %2 = alloca ptr, align 8
  store ptr %0, ptr %2, align 8, !tbaa !10
  %3 = load ptr, ptr %2, align 8
  invoke void @_ZN3tbb6detail2r123concurrent_monitor_baseImE7destroyEv(ptr noundef nonnull align 8 dereferenceable(36) %3)
          to label %4 unwind label %5

4:                                                ; preds = %1
  ret void

5:                                                ; preds = %1
  %6 = landingpad { ptr, i32 }
          catch ptr null
  %7 = extractvalue { ptr, i32 } %6, 0
  call void @__clang_call_terminate(ptr %7) #14
  unreachable
}

; Function Attrs: mustprogress sspstrong uwtable
define void @_ZN3tbb6detail2r128deallocate_bounded_queue_repEPhm(ptr noundef %0, i64 noundef %1) #0 {
  %3 = alloca ptr, align 8
  %4 = alloca i64, align 8
  %5 = alloca ptr, align 8
  %6 = alloca i64, align 8
  store ptr %0, ptr %3, align 8, !tbaa !7
  store i64 %1, ptr %4, align 8, !tbaa !3
  call void @llvm.lifetime.start.p0(i64 8, ptr %5) #13
  %7 = load ptr, ptr %3, align 8, !tbaa !7
  %8 = load i64, ptr %4, align 8, !tbaa !3
  %9 = getelementptr inbounds nuw i8, ptr %7, i64 %8
  store ptr %9, ptr %5, align 8, !tbaa !10
  call void @llvm.lifetime.start.p0(i64 8, ptr %6) #13
  store i64 0, ptr %6, align 8, !tbaa !3
  br label %10

10:                                               ; preds = %18, %2
  %11 = load i64, ptr %6, align 8, !tbaa !3
  %12 = icmp ult i64 %11, 2
  br i1 %12, label %14, label %13

13:                                               ; preds = %10
  call void @llvm.lifetime.end.p0(i64 8, ptr %6) #13
  br label %21

14:                                               ; preds = %10
  %15 = load ptr, ptr %5, align 8, !tbaa !10
  %16 = load i64, ptr %6, align 8, !tbaa !3
  %17 = getelementptr inbounds nuw %"class.tbb::detail::r1::concurrent_monitor", ptr %15, i64 %16
  call void @_ZN3tbb6detail2r118concurrent_monitorD2Ev(ptr noundef nonnull align 8 dereferenceable(36) %17) #13
  br label %18

18:                                               ; preds = %14
  %19 = load i64, ptr %6, align 8, !tbaa !3
  %20 = add i64 %19, 1
  store i64 %20, ptr %6, align 8, !tbaa !3
  br label %10, !llvm.loop !14

21:                                               ; preds = %13
  %22 = load ptr, ptr %3, align 8, !tbaa !7
  call void @_ZN3tbb6detail2r124cache_aligned_deallocateEPv(ptr noundef %22)
  call void @llvm.lifetime.end.p0(i64 8, ptr %5) #13
  ret void
}