; Function Attrs: mustprogress sspstrong uwtable
define void @_ZN3tbb6detail2r128deallocate_bounded_queue_repEPhm(ptr noundef %0, i64 noundef %1) local_unnamed_addr #0 personality ptr @__gxx_personality_v0 {
  %3 = alloca i8, align 1
  %4 = getelementptr inbounds nuw i8, ptr %0, i64 %1
  br label %6

5:                                                ; preds = %_ZN3tbb6detail2r118concurrent_monitorD2Ev.exit
  call void @_ZN3tbb6detail2r124cache_aligned_deallocateEPv(ptr noundef nonnull %0)
  ret void

6:                                                ; preds = %2, %_ZN3tbb6detail2r118concurrent_monitorD2Ev.exit
  %7 = phi i1 [ true, %2 ], [ false, %_ZN3tbb6detail2r118concurrent_monitorD2Ev.exit ]
  %.06 = phi i64 [ 0, %2 ], [ 1, %_ZN3tbb6detail2r118concurrent_monitorD2Ev.exit ]
  %8 = getelementptr inbounds nuw %"class.tbb::detail::r1::concurrent_monitor", ptr %4, i64 %.06
  call void @llvm.lifetime.start.p0(i64 1, ptr nonnull %3) #9
  store i8 0, ptr %3, align 1, !tbaa !10
  call void asm sideeffect "lock; notb $0", "=*m,*m,~{memory},~{dirflag},~{fpsr},~{flags}"(ptr nonnull elementtype(i8) %3, ptr nonnull elementtype(i8) %3) #9, !srcloc !11
  call void @llvm.lifetime.end.p0(i64 1, ptr nonnull %3) #9
  invoke void @_ZN3tbb6detail2r123concurrent_monitor_baseImE17abort_all_relaxedEv(ptr noundef nonnull align 8 dereferenceable(36) %8)
          to label %_ZN3tbb6detail2r118concurrent_monitorD2Ev.exit unwind label %9

9:                                                ; preds = %6
  %10 = landingpad { ptr, i32 }
          catch ptr null
  %11 = extractvalue { ptr, i32 } %10, 0
  call void @__clang_call_terminate(ptr %11) #10
  unreachable

_ZN3tbb6detail2r118concurrent_monitorD2Ev.exit:   ; preds = %6
  br i1 %7, label %6, label %5, !llvm.loop !12
}